target datalayout = "e-m:e-p270:32:32-p271:32:32-p272:64:64-i64:64-i128:128-f80:128-n8:16:32:64-S128"
target triple = "x86_64-pc-linux-gnu"

%struct.mi_page_s = type { i32, i32, i8, i16, i16, %union.mi_page_flags_s, i8, ptr, i32, i32, ptr, i64, i64, ptr, ptr, [1 x i64] }
%union.mi_page_flags_s = type { i8 }

; Function Attrs: inlinehint nounwind uwtable
define internal i64 @mi_tf_make(ptr noundef %0, i32 noundef %1) #1 {
  %3 = alloca ptr, align 8
  %4 = alloca i32, align 4
  store ptr %0, ptr %3, align 8, !tbaa !39
  store i32 %1, ptr %4, align 4, !tbaa !27
  %5 = load ptr, ptr %3, align 8, !tbaa !39
  %6 = ptrtoint ptr %5 to i64
  %7 = load i32, ptr %4, align 4, !tbaa !27
  %8 = zext i32 %7 to i64
  %9 = or i64 %6, %8
  ret i64 %9
}

; Function Attrs: inlinehint nounwind uwtable
define internal ptr @mi_tf_block(i64 noundef %0) #1 {
  %2 = alloca i64, align 8
  store i64 %0, ptr %2, align 8, !tbaa !3
  %3 = load i64, ptr %2, align 8, !tbaa !3
  %4 = and i64 %3, -4
  %5 = inttoptr i64 %4 to ptr
  ret ptr %5
}

; Function Attrs: inlinehint nounwind uwtable
define internal void @mi_atomic_yield() #1 {
  call void @llvm.x86.sse2.pause()
  ret void
}

; Function Attrs: inlinehint nounwind uwtable
define internal i32 @mi_tf_delayed(i64 noundef %0) #1 {
  %2 = alloca i64, align 8
  store i64 %0, ptr %2, align 8, !tbaa !3
  %3 = load i64, ptr %2, align 8, !tbaa !3
  %4 = and i64 %3, 3
  %5 = trunc i64 %4 to i32
  ret i32 %5
}

; Function Attrs: inlinehint nounwind uwtable
define internal i64 @mi_tf_set_delayed(i64 noundef %0, i32 noundef %1) #1 {
  %3 = alloca i64, align 8
  %4 = alloca i32, align 4
  store i64 %0, ptr %3, align 8, !tbaa !3
  store i32 %1, ptr %4, align 4, !tbaa !27
  %5 = load i64, ptr %3, align 8, !tbaa !3
  %6 = call ptr @mi_tf_block(i64 noundef %5)
  %7 = load i32, ptr %4, align 4, !tbaa !27
  %8 = call i64 @mi_tf_make(ptr noundef %6, i32 noundef %7)
  ret i64 %8
}

; Function Attrs: nounwind uwtable
define hidden void @_mi_page_use_delayed_free(ptr noundef %0, i32 noundef %1, i1 noundef zeroext %2) #0 {
  %4 = alloca ptr, align 8
  %5 = alloca i32, align 4
  %6 = alloca i8, align 1
  %7 = alloca i64, align 8
  %8 = alloca i32, align 4
  %9 = alloca i64, align 8
  %10 = alloca i64, align 8
  %11 = alloca i64, align 8
  %12 = alloca i8, align 1
  store ptr %0, ptr %4, align 8, !tbaa !17
  store i32 %1, ptr %5, align 4, !tbaa !27
  %13 = zext i1 %2 to i8
  store i8 %13, ptr %6, align 1, !tbaa !28
  call void @llvm.lifetime.start.p0(i64 8, ptr %7) #6
  call void @llvm.lifetime.start.p0(i64 4, ptr %8) #6
  call void @llvm.lifetime.start.p0(i64 8, ptr %9) #6
  br label %14

14:                                               ; preds = %66, %3
  %15 = load ptr, ptr %4, align 8, !tbaa !17
  %16 = getelementptr inbounds nuw %struct.mi_page_s, ptr %15, i32 0, i32 11
  %17 = load atomic i64, ptr %16 acquire, align 8
  store i64 %17, ptr %10, align 8
  %18 = load i64, ptr %10, align 8, !tbaa !3
  store i64 %18, ptr %9, align 8, !tbaa !3
  %19 = load i64, ptr %9, align 8, !tbaa !3
  %20 = load i32, ptr %5, align 4, !tbaa !27
  %21 = call i64 @mi_tf_set_delayed(i64 noundef %19, i32 noundef %20)
  store i64 %21, ptr %7, align 8, !tbaa !3
  %22 = load i64, ptr %9, align 8, !tbaa !3
  %23 = call i32 @mi_tf_delayed(i64 noundef %22)
  store i32 %23, ptr %8, align 4, !tbaa !27
  %24 = load i32, ptr %8, align 4, !tbaa !27
  %25 = icmp eq i32 %24, 1
  %26 = xor i1 %25, true
  %27 = xor i1 %26, true
  %28 = zext i1 %27 to i32
  %29 = sext i32 %28 to i64
  %30 = call i64 @llvm.expect.i64(i64 %29, i64 0)
  %31 = icmp ne i64 %30, 0
  br i1 %31, label %32, label %33

32:                                               ; preds = %14
  call void @mi_atomic_yield()
  br label %47

33:                                               ; preds = %14
  %34 = load i32, ptr %5, align 4, !tbaa !27
  %35 = load i32, ptr %8, align 4, !tbaa !27
  %36 = icmp eq i32 %34, %35
  br i1 %36, label %37, label %38

37:                                               ; preds = %33
  br label %68

38:                                               ; preds = %33
  %39 = load i8, ptr %6, align 1, !tbaa !28, !range !30, !noundef !31
  %40 = trunc i8 %39 to i1
  br i1 %40, label %45, label %41

41:                                               ; preds = %38
  %42 = load i32, ptr %8, align 4, !tbaa !27
  %43 = icmp eq i32 %42, 3
  br i1 %43, label %44, label %45

44:                                               ; preds = %41
  br label %68

45:                                               ; preds = %41, %38
  br label %46

46:                                               ; preds = %45
  br label %47

47:                                               ; preds = %46, %32
  br label %48

48:                                               ; preds = %47
  %49 = load i32, ptr %8, align 4, !tbaa !27
  %50 = icmp eq i32 %49, 1
  br i1 %50, label %66, label %51

51:                                               ; preds = %48
  %52 = load ptr, ptr %4, align 8, !tbaa !17
  %53 = getelementptr inbounds nuw %struct.mi_page_s, ptr %52, i32 0, i32 11
  %54 = load i64, ptr %7, align 8, !tbaa !3
  store i64 %54, ptr %11, align 8, !tbaa !3
  %55 = load i64, ptr %9, align 8
  %56 = load i64, ptr %11, align 8
  %57 = cmpxchg weak ptr %53, i64 %55, i64 %56 release monotonic, align 8
  %58 = extractvalue { i64, i1 } %57, 0
  %59 = extractvalue { i64, i1 } %57, 1
  br i1 %59, label %61, label %60

60:                                               ; preds = %51
  store i64 %58, ptr %9, align 8
  br label %61

61:                                               ; preds = %60, %51
  %62 = zext i1 %59 to i8
  store i8 %62, ptr %12, align 1, !tbaa !28
  %63 = load i8, ptr %12, align 1, !tbaa !28, !range !30, !noundef !31
  %64 = trunc i8 %63 to i1
  %65 = xor i1 %64, true
  br label %66

66:                                               ; preds = %61, %48
  %67 = phi i1 [ true, %48 ], [ %65, %61 ]
  br i1 %67, label %14, label %68, !llvm.loop !32

68:                                               ; preds = %66, %44, %37
  call void @llvm.lifetime.end.p0(i64 8, ptr %9) #6
  call void @llvm.lifetime.end.p0(i64 4, ptr %8) #6
  call void @llvm.lifetime.end.p0(i64 8, ptr %7) #6
  ret void
}