; Function Attrs: nounwind uwtable
define hidden void @_mi_page_use_delayed_free(ptr noundef captures(none) %0, i32 noundef %1, i1 noundef zeroext %2) local_unnamed_addr #1 {
  %4 = getelementptr inbounds nuw i8, ptr %0, i64 40
  %5 = zext i32 %1 to i64
  br label %.critedge

.critedge:                                        ; preds = %.critedge.backedge, %3
  %6 = load atomic i64, ptr %4 acquire, align 8
  %7 = and i64 %6, -4
  %8 = or i64 %7, %5
  %9 = trunc i64 %6 to i32
  %10 = and i32 %9, 3
  %11 = icmp eq i32 %10, 1
  br i1 %11, label %15, label %12, !prof !25

12:                                               ; preds = %.critedge
  %13 = icmp ne i32 %1, %10
  %14 = icmp ne i32 %10, 3
  %or.cond.not = or i1 %2, %14
  %or.cond = and i1 %13, %or.cond.not
  br i1 %or.cond, label %16, label %19

15:                                               ; preds = %.critedge
  tail call void @llvm.x86.sse2.pause()
  br label %.critedge.backedge

16:                                               ; preds = %12
  %17 = cmpxchg weak ptr %4, i64 %6, i64 %8 release monotonic, align 8
  %18 = extractvalue { i64, i1 } %17, 1
  br i1 %18, label %19, label %.critedge.backedge

.critedge.backedge:                               ; preds = %16, %15
  br label %.critedge, !llvm.loop !13

19:                                               ; preds = %12, %16
  ret void
}